target datalayout = "e-m:e-p270:32:32-p271:32:32-p272:64:64-i64:64-i128:128-f80:128-n8:16:32:64-S128"
target triple = "x86_64-pc-linux-gnu"

@.str.26 = private unnamed_addr constant [64 x i8] c"\0AidaHeat2D_kry: Heat equation, serial example problem for IDA \0A\00", align 1
@.str.27 = private unnamed_addr constant [56 x i8] c"         Discretized heat equation on 2D unit square. \0A\00", align 1
@.str.28 = private unnamed_addr constant [35 x i8] c"         Zero boundary conditions,\00", align 1
@.str.29 = private unnamed_addr constant [33 x i8] c" polynomial initial conditions.\0A\00", align 1
@.str.30 = private unnamed_addr constant [34 x i8] c"         Mesh dimensions: %d x %d\00", align 1
@.str.31 = private unnamed_addr constant [32 x i8] c"        Total system size: %d\0A\0A\00", align 1
@.str.32 = private unnamed_addr constant [46 x i8] c"Tolerance parameters:  rtol = %g   atol = %g\0A\00", align 1
@.str.33 = private unnamed_addr constant [57 x i8] c"Constraints set to force all solution components >= 0. \0A\00", align 1
@.str.34 = private unnamed_addr constant [64 x i8] c"Linear solver: SPGMR, preconditioner using diagonal elements. \0A\00", align 1

; Function Attrs: nounwind uwtable
define internal void @PrintHeader(double noundef %0, double noundef %1) #0 {
  %3 = alloca double, align 8
  %4 = alloca double, align 8
  store double %0, ptr %3, align 8, !tbaa !23
  store double %1, ptr %4, align 8, !tbaa !23
  %5 = call i32 (ptr, ...) @printf(ptr noundef @.str.26)
  %6 = call i32 (ptr, ...) @printf(ptr noundef @.str.27)
  %7 = call i32 (ptr, ...) @printf(ptr noundef @.str.28)
  %8 = call i32 (ptr, ...) @printf(ptr noundef @.str.29)
  %9 = call i32 (ptr, ...) @printf(ptr noundef @.str.30, i32 noundef 10, i32 noundef 10)
  %10 = call i32 (ptr, ...) @printf(ptr noundef @.str.31, i32 noundef 100)
  %11 = load double, ptr %3, align 8, !tbaa !23
  %12 = load double, ptr %4, align 8, !tbaa !23
  %13 = call i32 (ptr, ...) @printf(ptr noundef @.str.32, double noundef %11, double noundef %12)
  %14 = call i32 (ptr, ...) @printf(ptr noundef @.str.33)
  %15 = call i32 (ptr, ...) @printf(ptr noundef @.str.34)
  ret void
}